target datalayout = "e-m:e-p270:32:32-p271:32:32-p272:64:64-i64:64-i128:128-f80:128-n8:16:32:64-S128"
target triple = "x86_64-pc-linux-gnu"

%"class.gmx::ArrayRef.178" = type { %"struct.gmx::ArrayRefIter.179", %"struct.gmx::ArrayRefIter.179" }
%"struct.gmx::ArrayRefIter.179" = type { ptr }

@.str.22 = private unnamed_addr constant [123 x i8] c"generated/home/dtcxzyw/WorkSpace/Projects/compilers/llvm-opt-benchmark/bench/gromacs/gromacs/src/gromacs/mdtypes/state.cpp\00", align 1
@.str.76 = private unnamed_addr constant [5 x i8] c"dest\00", align 1

; Function Attrs: mustprogress nounwind uwtable
define internal noundef ptr @_ZN3gmxL12as_vec_arrayIfEEPKNS_11BasicVectorIT_E8RawArrayEPKS3_(ptr noundef %0) #0 {
  %2 = alloca ptr, align 8
  store ptr %0, ptr %2, align 8
  %3 = load ptr, ptr %2, align 8
  ret ptr %3
}

; Function Attrs: mustprogress nounwind uwtable
define linkonce_odr noundef ptr @_ZNK3gmx12ArrayRefIterIKNS_11BasicVectorIfEEE4dataEv(ptr noundef nonnull align 8 dereferenceable(8) %0) #0 comdat align 2 {
  %2 = alloca ptr, align 8
  store ptr %0, ptr %2, align 8
  %3 = load ptr, ptr %2, align 8
  %4 = getelementptr inbounds %"struct.gmx::ArrayRefIter.179", ptr %3, i32 0, i32 0
  %5 = load ptr, ptr %4, align 8
  ret ptr %5
}

; Function Attrs: mustprogress nounwind uwtable
define internal void @_ZL9copy_rvecPKfPf(ptr noundef %0, ptr noundef %1) #0 {
  %3 = alloca ptr, align 8
  %4 = alloca ptr, align 8
  store ptr %0, ptr %3, align 8
  store ptr %1, ptr %4, align 8
  %5 = load ptr, ptr %3, align 8
  %6 = getelementptr inbounds float, ptr %5, i64 0
  %7 = load float, ptr %6, align 4
  %8 = load ptr, ptr %4, align 8
  %9 = getelementptr inbounds float, ptr %8, i64 0
  store float %7, ptr %9, align 4
  %10 = load ptr, ptr %3, align 8
  %11 = getelementptr inbounds float, ptr %10, i64 1
  %12 = load float, ptr %11, align 4
  %13 = load ptr, ptr %4, align 8
  %14 = getelementptr inbounds float, ptr %13, i64 1
  store float %12, ptr %14, align 4
  %15 = load ptr, ptr %3, align 8
  %16 = getelementptr inbounds float, ptr %15, i64 2
  %17 = load float, ptr %16, align 4
  %18 = load ptr, ptr %4, align 8
  %19 = getelementptr inbounds float, ptr %18, i64 2
  store float %17, ptr %19, align 4
  ret void
}

; Function Attrs: mustprogress uwtable
define internal noundef ptr @_ZN3gmxL13as_rvec_arrayEPKNS_11BasicVectorIfEE(ptr noundef %0) #1 {
  %2 = alloca ptr, align 8
  store ptr %0, ptr %2, align 8
  %3 = load ptr, ptr %2, align 8
  %4 = call noundef ptr @_ZN3gmxL12as_vec_arrayIfEEPKNS_11BasicVectorIT_E8RawArrayEPKS3_(ptr noundef %3)
  ret ptr %4
}

; Function Attrs: mustprogress nounwind uwtable
define linkonce_odr noundef ptr @_ZNK3gmx8ArrayRefIKNS_11BasicVectorIfEEE4dataEv(ptr noundef nonnull align 8 dereferenceable(16) %0) #0 comdat align 2 {
  %2 = alloca ptr, align 8
  store ptr %0, ptr %2, align 8
  %3 = load ptr, ptr %2, align 8
  %4 = getelementptr inbounds %"class.gmx::ArrayRef.178", ptr %3, i32 0, i32 0
  %5 = call noundef ptr @_ZNK3gmx12ArrayRefIterIKNS_11BasicVectorIfEEE4dataEv(ptr noundef nonnull align 8 dereferenceable(8) %4) #12
  ret ptr %5
}

; Function Attrs: mustprogress uwtable
define internal void @_ZL13gmx_snew_implIA3_fEvPKcS2_iRPT_m(ptr noundef %0, ptr noundef %1, i32 noundef %2, ptr noundef nonnull align 8 dereferenceable(8) %3, i64 noundef %4) #1 {
  %6 = alloca ptr, align 8
  %7 = alloca ptr, align 8
  %8 = alloca i32, align 4
  %9 = alloca ptr, align 8
  %10 = alloca i64, align 8
  store ptr %0, ptr %6, align 8
  store ptr %1, ptr %7, align 8
  store i32 %2, ptr %8, align 4
  store ptr %3, ptr %9, align 8
  store i64 %4, ptr %10, align 8
  %11 = load ptr, ptr %6, align 8
  %12 = load ptr, ptr %7, align 8
  %13 = load i32, ptr %8, align 4
  %14 = load i64, ptr %10, align 8
  %15 = call noundef ptr @_Z11save_callocPKcS0_imm(ptr noundef %11, ptr noundef %12, i32 noundef %13, i64 noundef %14, i64 noundef 12)
  %16 = load ptr, ptr %9, align 8
  store ptr %15, ptr %16, align 8
  ret void
}

; Function Attrs: mustprogress uwtable
define noundef ptr @_Z13makeRvecArrayN3gmx8ArrayRefIKNS_11BasicVectorIfEEEEl(ptr %0, ptr %1, i64 noundef %2) #1 {
  %4 = alloca %"class.gmx::ArrayRef.178", align 8
  %5 = alloca i64, align 8
  %6 = alloca ptr, align 8
  %7 = alloca ptr, align 8
  %8 = alloca i64, align 8
  %9 = getelementptr inbounds { ptr, ptr }, ptr %4, i32 0, i32 0
  store ptr %0, ptr %9, align 8
  %10 = getelementptr inbounds { ptr, ptr }, ptr %4, i32 0, i32 1
  store ptr %1, ptr %10, align 8
  store i64 %2, ptr %5, align 8
  %11 = load i64, ptr %5, align 8
  call void @_ZL13gmx_snew_implIA3_fEvPKcS2_iRPT_m(ptr noundef @.str.76, ptr noundef @.str.22, i32 noundef 355, ptr noundef nonnull align 8 dereferenceable(8) %6, i64 noundef %11)
  %12 = call noundef ptr @_ZNK3gmx8ArrayRefIKNS_11BasicVectorIfEEE4dataEv(ptr noundef nonnull align 8 dereferenceable(16) %4)
  %13 = call noundef ptr @_ZN3gmxL13as_rvec_arrayEPKNS_11BasicVectorIfEE(ptr noundef %12)
  store ptr %13, ptr %7, align 8
  store i64 0, ptr %8, align 8
  br label %14

14:                                               ; preds = %27, %3
  %15 = load i64, ptr %8, align 8
  %16 = load i64, ptr %5, align 8
  %17 = icmp slt i64 %15, %16
  br i1 %17, label %18, label %30

18:                                               ; preds = %14
  %19 = load ptr, ptr %7, align 8
  %20 = load i64, ptr %8, align 8
  %21 = getelementptr inbounds [3 x float], ptr %19, i64 %20
  %22 = getelementptr inbounds [3 x float], ptr %21, i64 0, i64 0
  %23 = load ptr, ptr %6, align 8
  %24 = load i64, ptr %8, align 8
  %25 = getelementptr inbounds [3 x float], ptr %23, i64 %24
  %26 = getelementptr inbounds [3 x float], ptr %25, i64 0, i64 0
  call void @_ZL9copy_rvecPKfPf(ptr noundef %22, ptr noundef %26)
  br label %27

27:                                               ; preds = %18
  %28 = load i64, ptr %8, align 8
  %29 = add nsw i64 %28, 1
  store i64 %29, ptr %8, align 8
  br label %14, !llvm.loop !34

30:                                               ; preds = %14
  %31 = load ptr, ptr %6, align 8
  ret ptr %31
}