; Function Attrs: mustprogress uwtable
define noundef ptr @_Z13makeRvecArrayN3gmx8ArrayRefIKNS_11BasicVectorIfEEEEl(ptr nocapture readonly %0, ptr nocapture readnone %1, i64 noundef %2) local_unnamed_addr #4 {
  %4 = tail call noundef ptr @_Z11save_callocPKcS0_imm(ptr noundef nonnull @.str.76, ptr noundef nonnull @.str.22, i32 noundef 355, i64 noundef %2, i64 noundef 12)
  %5 = icmp sgt i64 %2, 0
  br i1 %5, label %.lr.ph, label %._crit_edge

.lr.ph:                                           ; preds = %3, %.lr.ph
  %.07 = phi i64 [ %15, %.lr.ph ], [ 0, %3 ]
  %6 = getelementptr inbounds [3 x float], ptr %0, i64 %.07
  %7 = getelementptr inbounds [3 x float], ptr %4, i64 %.07
  %8 = load float, ptr %6, align 4
  store float %8, ptr %7, align 4
  %9 = getelementptr inbounds i8, ptr %6, i64 4
  %10 = load float, ptr %9, align 4
  %11 = getelementptr inbounds i8, ptr %7, i64 4
  store float %10, ptr %11, align 4
  %12 = getelementptr inbounds i8, ptr %6, i64 8
  %13 = load float, ptr %12, align 4
  %14 = getelementptr inbounds i8, ptr %7, i64 8
  store float %13, ptr %14, align 4
  %15 = add nuw nsw i64 %.07, 1
  %exitcond.not = icmp eq i64 %15, %2
  br i1 %exitcond.not, label %._crit_edge, label %.lr.ph, !llvm.loop !233

._crit_edge:                                      ; preds = %.lr.ph, %3
  ret ptr %4
}